target datalayout = "e-m:e-p270:32:32-p271:32:32-p272:64:64-i64:64-i128:128-f80:128-n8:16:32:64-S128"
target triple = "x86_64-pc-linux-gnu"

%"struct.std::nothrow_t" = type { i8 }

@_ZSt7nothrow = external global %"struct.std::nothrow_t", align 1
@_ZN8PJconstsC1Ev = hidden unnamed_addr alias void (ptr), ptr @_ZN8PJconstsC2Ev

; Function Attrs: mustprogress uwtable
define hidden noundef ptr @_Z6pj_newv() #5 personality ptr @__gxx_personality_v0 {
  %1 = alloca i1, align 1
  %2 = alloca ptr, align 8
  %3 = alloca i32, align 4
  %4 = call noalias noundef ptr @_ZnwmRKSt9nothrow_t(i64 noundef 856, ptr noundef nonnull align 1 dereferenceable(1) @_ZSt7nothrow) #23
  %5 = icmp eq ptr %4, null
  store i1 false, ptr %1, align 1
  br i1 %5, label %8, label %6

6:                                                ; preds = %0
  store i1 true, ptr %1, align 1
  invoke void @_ZN8PJconstsC1Ev(ptr noundef nonnull align 8 dereferenceable(856) %4)
          to label %7 unwind label %10

7:                                                ; preds = %6
  br label %8

8:                                                ; preds = %7, %0
  %9 = phi ptr [ %4, %7 ], [ null, %0 ]
  ret ptr %9

10:                                               ; preds = %6
  %11 = landingpad { ptr, i32 }
          cleanup
  %12 = extractvalue { ptr, i32 } %11, 0
  store ptr %12, ptr %2, align 8
  %13 = extractvalue { ptr, i32 } %11, 1
  store i32 %13, ptr %3, align 4
  %14 = load i1, ptr %1, align 1
  br i1 %14, label %15, label %16

15:                                               ; preds = %10
  call void @_ZdlPvRKSt9nothrow_t(ptr noundef %4, ptr noundef nonnull align 1 dereferenceable(1) @_ZSt7nothrow) #21
  br label %16

16:                                               ; preds = %15, %10
  br label %17

17:                                               ; preds = %16
  %18 = load ptr, ptr %2, align 8
  %19 = load i32, ptr %3, align 4
  %20 = insertvalue { ptr, i32 } poison, ptr %18, 0
  %21 = insertvalue { ptr, i32 } %20, i32 %19, 1
  resume { ptr, i32 } %21
}