; Function Attrs: mustprogress nounwind uwtable
define hidden noundef ptr @_Z6pj_newv() local_unnamed_addr #10 personality ptr @__gxx_personality_v0 {
  %1 = tail call noalias noundef dereferenceable_or_null(856) ptr @_ZnwmRKSt9nothrow_t(i64 noundef 856, ptr noundef nonnull align 1 dereferenceable(1) @_ZSt7nothrow) #21
  %2 = icmp eq ptr %1, null
  br i1 %2, label %29, label %3

3:                                                ; preds = %0
  %4 = getelementptr inbounds nuw i8, ptr %1, i64 104
  %5 = getelementptr inbounds nuw i8, ptr %1, i64 152
  tail call void @llvm.memset.p0.i64(ptr noundef nonnull align 8 dereferenceable(856) %1, i8 0, i64 100, i1 false)
  tail call void @llvm.memset.p0.i64(ptr noundef nonnull align 8 dereferenceable(48) %4, i8 0, i64 48, i1 false)
  store ptr @_Z21pj_default_destructorP8PJconstsi, ptr %5, align 8, !tbaa !10
  %6 = getelementptr inbounds nuw i8, ptr %1, i64 160
  %7 = getelementptr inbounds nuw i8, ptr %1, i64 392
  %8 = getelementptr inbounds nuw i8, ptr %1, i64 536
  tail call void @llvm.memset.p0.i64(ptr noundef nonnull align 8 dereferenceable(228) %6, i8 0, i64 228, i1 false)
  tail call void @llvm.memset.p0.i64(ptr noundef nonnull align 8 dereferenceable(140) %7, i8 0, i64 140, i1 false)
  %9 = getelementptr inbounds nuw i8, ptr %1, i64 600
  %10 = getelementptr inbounds nuw i8, ptr %1, i64 664
  store double 0.000000e+00, ptr %10, align 8, !tbaa !39
  %11 = getelementptr inbounds nuw i8, ptr %1, i64 672
  store i8 0, ptr %11, align 8, !tbaa !40
  %12 = getelementptr inbounds nuw i8, ptr %1, i64 680
  %13 = getelementptr inbounds nuw i8, ptr %1, i64 696
  tail call void @llvm.memset.p0.i64(ptr noundef nonnull align 8 dereferenceable(60) %8, i8 0, i64 60, i1 false)
  tail call void @llvm.memset.p0.i64(ptr noundef nonnull align 8 dereferenceable(57) %9, i8 0, i64 57, i1 false)
  store ptr %13, ptr %12, align 8, !tbaa !41
  %14 = getelementptr inbounds nuw i8, ptr %1, i64 688
  store i64 0, ptr %14, align 8, !tbaa !42
  store i8 0, ptr %13, align 1, !tbaa !43
  %15 = getelementptr inbounds nuw i8, ptr %1, i64 712
  %16 = getelementptr inbounds nuw i8, ptr %1, i64 728
  store ptr %16, ptr %15, align 8, !tbaa !41
  %17 = getelementptr inbounds nuw i8, ptr %1, i64 720
  store i64 0, ptr %17, align 8, !tbaa !42
  store i8 0, ptr %16, align 1, !tbaa !43
  %18 = getelementptr inbounds nuw i8, ptr %1, i64 744
  %19 = getelementptr inbounds nuw i8, ptr %1, i64 760
  store ptr %19, ptr %18, align 8, !tbaa !41
  %20 = getelementptr inbounds nuw i8, ptr %1, i64 752
  store i64 0, ptr %20, align 8, !tbaa !42
  store i8 0, ptr %19, align 1, !tbaa !43
  %21 = getelementptr inbounds nuw i8, ptr %1, i64 776
  store i8 0, ptr %21, align 8, !tbaa !44
  %22 = getelementptr inbounds nuw i8, ptr %1, i64 784
  %23 = getelementptr inbounds nuw i8, ptr %1, i64 816
  %24 = getelementptr inbounds nuw i8, ptr %1, i64 840
  tail call void @llvm.memset.p0.i64(ptr noundef nonnull align 8 dereferenceable(28) %22, i8 0, i64 28, i1 false)
  tail call void @llvm.memset.p0.i64(ptr noundef nonnull align 8 dereferenceable(24) %23, i8 0, i64 24, i1 false)
  store i32 -1, ptr %24, align 8, !tbaa !45
  %25 = getelementptr inbounds nuw i8, ptr %1, i64 844
  store i8 0, ptr %25, align 4, !tbaa !46
  %26 = getelementptr inbounds nuw i8, ptr %1, i64 845
  store i8 1, ptr %26, align 1, !tbaa !47
  %27 = getelementptr inbounds nuw i8, ptr %1, i64 846
  store i8 1, ptr %27, align 2, !tbaa !48
  %28 = getelementptr inbounds nuw i8, ptr %1, i64 848
  store ptr null, ptr %28, align 8, !tbaa !49
  br label %29

29:                                               ; preds = %3, %0
  ret ptr %1
}